; Function Attrs: mustprogress uwtable
define noundef zeroext i1 @_ZN6google8protobuf2io16CordOutputStream9WriteCordERKN4absl12lts_202308024CordE(ptr noundef nonnull align 8 dereferenceable(56) %this, ptr noundef nonnull align 8 dereferenceable(16) %cord) unnamed_addr #5 align 2 personality ptr @__gxx_personality_v0 {
entry:
  %agg.tmp = alloca %"class.absl::lts_20230802::CordBuffer", align 8
  %cord_ = getelementptr inbounds i8, ptr %this, i64 8
  %buffer_ = getelementptr inbounds i8, ptr %this, i64 40
  call void @llvm.memcpy.p0.p0.i64(ptr noundef nonnull align 8 dereferenceable(16) %agg.tmp, ptr noundef nonnull align 8 dereferenceable(16) %buffer_, i64 16, i1 false)
  store i8 1, ptr %buffer_, align 8
  %0 = load i8, ptr %agg.tmp, align 8
  %1 = and i8 %0, 1
  %cmp.i.not.i.i = icmp eq i8 %1, 0
  br i1 %cmp.i.not.i.i, label %_ZNK4absl12lts_2023080210CordBuffer6lengthEv.exit.i, label %_ZNK4absl12lts_2023080210CordBuffer6lengthEv.exit.thread.i

_ZNK4absl12lts_2023080210CordBuffer6lengthEv.exit.i: ; preds = %entry
  %2 = load ptr, ptr %agg.tmp, align 8
  %3 = load i64, ptr %2, align 8
  %cmp.i = icmp eq i64 %3, 0
  %4 = ptrtoint ptr %2 to i64
  %5 = trunc i64 %4 to i8
  br i1 %cmp.i, label %invoke.cont, label %if.then3.i

_ZNK4absl12lts_2023080210CordBuffer6lengthEv.exit.thread.i: ; preds = %entry
  %cmp5.i = icmp ult i8 %0, 2
  br i1 %cmp5.i, label %_ZN4absl12lts_2023080210CordBufferD2Ev.exit, label %if.else.i

if.then3.i:                                       ; preds = %_ZNK4absl12lts_2023080210CordBuffer6lengthEv.exit.i
  store i8 1, ptr %agg.tmp, align 8
  invoke void @_ZN4absl12lts_202308024Cord9InlineRep10AppendTreeEPNS0_13cord_internal7CordRepENS3_18CordzUpdateTracker16MethodIdentifierE(ptr noundef nonnull align 8 dereferenceable(16) %cord_, ptr noundef nonnull %2, i32 noundef 2)
          to label %_ZN4absl12lts_2023080210CordBufferD2Ev.exit unwind label %lpad

if.else.i:                                        ; preds = %_ZNK4absl12lts_2023080210CordBuffer6lengthEv.exit.thread.i
  store i8 1, ptr %agg.tmp, align 8
  %6 = ashr i8 %0, 1
  %conv2.i.i3.i = sext i8 %6 to i64
  %data.i.i.i = getelementptr inbounds i8, ptr %agg.tmp, i64 1
  invoke void @_ZN4absl12lts_202308024Cord13AppendPreciseESt17basic_string_viewIcSt11char_traitsIcEENS0_13cord_internal18CordzUpdateTracker16MethodIdentifierE(ptr noundef nonnull align 8 dereferenceable(16) %cord_, i64 %conv2.i.i3.i, ptr nonnull %data.i.i.i, i32 noundef 2)
          to label %if.else.i.invoke.cont_crit_edge unwind label %lpad

if.else.i.invoke.cont_crit_edge:                  ; preds = %if.else.i
  %.pre = load i8, ptr %agg.tmp, align 8
  br label %invoke.cont

invoke.cont:                                      ; preds = %if.else.i.invoke.cont_crit_edge, %_ZNK4absl12lts_2023080210CordBuffer6lengthEv.exit.i
  %7 = phi i8 [ %.pre, %if.else.i.invoke.cont_crit_edge ], [ %5, %_ZNK4absl12lts_2023080210CordBuffer6lengthEv.exit.i ]
  %8 = and i8 %7, 1
  %cmp.i.not.i = icmp eq i8 %8, 0
  br i1 %cmp.i.not.i, label %if.then.i, label %_ZN4absl12lts_2023080210CordBufferD2Ev.exit

if.then.i:                                        ; preds = %invoke.cont
  %9 = load ptr, ptr %agg.tmp, align 8
  call void @_ZdlPv(ptr noundef %9) #25
  br label %_ZN4absl12lts_2023080210CordBufferD2Ev.exit

_ZN4absl12lts_2023080210CordBufferD2Ev.exit:      ; preds = %if.then3.i, %_ZNK4absl12lts_2023080210CordBuffer6lengthEv.exit.thread.i, %invoke.cont, %if.then.i
  call void @_ZN4absl12lts_202308024Cord6AppendERKS1_(ptr noundef nonnull align 8 dereferenceable(16) %cord_, ptr noundef nonnull align 8 dereferenceable(16) %cord)
  %state_ = getelementptr inbounds i8, ptr %this, i64 32
  store i32 3, ptr %state_, align 8
  ret i1 true

lpad:                                             ; preds = %if.else.i, %if.then3.i
  %10 = landingpad { ptr, i32 }
          cleanup
  %11 = load i8, ptr %agg.tmp, align 8
  %12 = and i8 %11, 1
  %cmp.i.not.i2 = icmp eq i8 %12, 0
  br i1 %cmp.i.not.i2, label %if.then.i3, label %_ZN4absl12lts_2023080210CordBufferD2Ev.exit4

if.then.i3:                                       ; preds = %lpad
  %13 = load ptr, ptr %agg.tmp, align 8
  call void @_ZdlPv(ptr noundef %13) #25
  br label %_ZN4absl12lts_2023080210CordBufferD2Ev.exit4

_ZN4absl12lts_2023080210CordBufferD2Ev.exit4:     ; preds = %lpad, %if.then.i3
  resume { ptr, i32 } %10
}